target datalayout = "e-m:e-p270:32:32-p271:32:32-p272:64:64-i64:64-i128:128-f80:128-n8:16:32:64-S128"
target triple = "x86_64-pc-linux-gnu"

; Function Attrs: mustprogress uwtable
define dso_local void @_ZN5vcpkg6Checks19check_maybe_upgradeERKNS_8LineInfoEb(ptr noundef nonnull align 8 dereferenceable(16) %0, i1 noundef zeroext %1) #0 {
  %3 = alloca ptr, align 8
  %4 = alloca i8, align 1
  store ptr %0, ptr %3, align 8, !tbaa !4
  %5 = zext i1 %1 to i8
  store i8 %5, ptr %4, align 1, !tbaa !22
  %6 = load i8, ptr %4, align 1, !tbaa !22, !range !26, !noundef !27
  %7 = trunc i8 %6 to i1
  br i1 %7, label %10, label %8

8:                                                ; preds = %2
  %9 = load ptr, ptr %3, align 8, !tbaa !4
  call void @_ZN5vcpkg6Checks18exit_maybe_upgradeERKNS_8LineInfoE(ptr noundef nonnull align 8 dereferenceable(16) %9) #20
  unreachable

10:                                               ; preds = %2
  ret void
}