; Function Attrs: mustprogress uwtable
define dso_local void @_ZN5vcpkg6Checks19check_maybe_upgradeERKNS_8LineInfoEb(ptr noundef nonnull align 8 dereferenceable(16) %0, i1 noundef zeroext %1) local_unnamed_addr #0 {
  br i1 %1, label %4, label %3

3:                                                ; preds = %2
  tail call void @_ZN5vcpkg6Checks18exit_maybe_upgradeERKNS_8LineInfoE(ptr noundef nonnull align 8 dereferenceable(16) %0) #23
  unreachable

4:                                                ; preds = %2
  ret void
}